target datalayout = "e-m:e-p270:32:32-p271:32:32-p272:64:64-i64:64-i128:128-f80:128-n8:16:32:64-S128"
target triple = "x86_64-pc-linux-gnu"

%struct.ossl_param_st = type { ptr, i32, ptr, i64, i64 }

@.str.53 = private unnamed_addr constant [31 x i8] c"../openssl/test/evp_kdf_test.c\00", align 1
@.str.60 = private unnamed_addr constant [7 x i8] c"sha256\00", align 1
@.str.67 = private unnamed_addr constant [2 x i8] c"0\00", align 1
@.str.71 = private unnamed_addr constant [5 x i8] c"salt\00", align 1
@.str.73 = private unnamed_addr constant [7 x i8] c"digest\00", align 1
@.str.76 = private unnamed_addr constant [4 x i8] c"mac\00", align 1
@.str.80 = private unnamed_addr constant [4 x i8] c"key\00", align 1
@.str.82 = private unnamed_addr constant [6 x i8] c"KBKDF\00", align 1
@.str.83 = private unnamed_addr constant [5 x i8] c"kctx\00", align 1
@.str.84 = private unnamed_addr constant [53 x i8] c"EVP_KDF_derive(kctx, result, sizeof(result), params)\00", align 1
@.str.85 = private unnamed_addr constant [7 x i8] c"result\00", align 1
@.str.89 = private unnamed_addr constant [5 x i8] c"HMAC\00", align 1
@.str.90 = private unnamed_addr constant [4 x i8] c"prf\00", align 1
@.str.91 = private unnamed_addr constant [5 x i8] c"test\00", align 1
@.str.93 = private unnamed_addr constant [5 x i8] c"info\00", align 1
@test_kdf_kbkdf_8009_prf1.input_key = internal global [16 x i8] c"7\05\D9`\80\C1w(\A0\E8\00\EA\B6\E0\D2<", align 16
@test_kdf_kbkdf_8009_prf1.output = internal global [32 x i8] c"\9D\18\86\16\F68R\FE\86\91[\B8@\B4\A8\86\FF>k\B0\F8\19\B4\9B\893\93\D3\93\85B\95", align 16
@.str.97 = private unnamed_addr constant [7 x i8] c"output\00", align 1

; Function Attrs: nounwind uwtable
define internal ptr @get_kdfbyname_libctx(ptr noundef %0, ptr noundef %1) #0 {
  %3 = alloca ptr, align 8
  %4 = alloca ptr, align 8
  %5 = alloca ptr, align 8
  %6 = alloca ptr, align 8
  store ptr %0, ptr %3, align 8, !tbaa !11
  store ptr %1, ptr %4, align 8, !tbaa !18
  call void @llvm.lifetime.start.p0(i64 8, ptr %5) #6
  %7 = load ptr, ptr %3, align 8, !tbaa !11
  %8 = load ptr, ptr %4, align 8, !tbaa !18
  %9 = call ptr @EVP_KDF_fetch(ptr noundef %7, ptr noundef %8, ptr noundef null)
  store ptr %9, ptr %5, align 8, !tbaa !26
  call void @llvm.lifetime.start.p0(i64 8, ptr %6) #6
  %10 = load ptr, ptr %5, align 8, !tbaa !26
  %11 = call ptr @EVP_KDF_CTX_new(ptr noundef %10)
  store ptr %11, ptr %6, align 8, !tbaa !8
  %12 = load ptr, ptr %5, align 8, !tbaa !26
  call void @EVP_KDF_free(ptr noundef %12)
  %13 = load ptr, ptr %6, align 8, !tbaa !8
  call void @llvm.lifetime.end.p0(i64 8, ptr %6) #6
  call void @llvm.lifetime.end.p0(i64 8, ptr %5) #6
  ret ptr %13
}

; Function Attrs: nounwind uwtable
define internal ptr @get_kdfbyname(ptr noundef %0) #0 {
  %2 = alloca ptr, align 8
  store ptr %0, ptr %2, align 8, !tbaa !18
  %3 = load ptr, ptr %2, align 8, !tbaa !18
  %4 = call ptr @get_kdfbyname_libctx(ptr noundef null, ptr noundef %3)
  ret ptr %4
}

; Function Attrs: nounwind uwtable
define internal i32 @test_kdf_kbkdf_8009_prf1() #0 {
  %1 = alloca i32, align 4
  %2 = alloca i32, align 4
  %3 = alloca ptr, align 8
  %4 = alloca [6 x %struct.ossl_param_st], align 16
  %5 = alloca ptr, align 8
  %6 = alloca ptr, align 8
  %7 = alloca ptr, align 8
  %8 = alloca ptr, align 8
  %9 = alloca [32 x i8], align 16
  %10 = alloca %struct.ossl_param_st, align 8
  %11 = alloca %struct.ossl_param_st, align 8
  %12 = alloca %struct.ossl_param_st, align 8
  %13 = alloca %struct.ossl_param_st, align 8
  %14 = alloca %struct.ossl_param_st, align 8
  %15 = alloca %struct.ossl_param_st, align 8
  call void @llvm.lifetime.start.p0(i64 4, ptr %1) #6
  call void @llvm.lifetime.start.p0(i64 4, ptr %2) #6
  store i32 0, ptr %2, align 4, !tbaa !4
  call void @llvm.lifetime.start.p0(i64 8, ptr %3) #6
  call void @llvm.lifetime.start.p0(i64 240, ptr %4) #6
  call void @llvm.lifetime.start.p0(i64 8, ptr %5) #6
  store ptr @.str.90, ptr %5, align 8, !tbaa !18
  call void @llvm.lifetime.start.p0(i64 8, ptr %6) #6
  store ptr @.str.60, ptr %6, align 8, !tbaa !18
  call void @llvm.lifetime.start.p0(i64 8, ptr %7) #6
  store ptr @.str.91, ptr %7, align 8, !tbaa !18
  call void @llvm.lifetime.start.p0(i64 8, ptr %8) #6
  store ptr @.str.89, ptr %8, align 8, !tbaa !18
  call void @llvm.lifetime.start.p0(i64 32, ptr %9) #6
  call void @llvm.memset.p0.i64(ptr align 16 %9, i8 0, i64 32, i1 false)
  %16 = load i32, ptr %2, align 4, !tbaa !4
  %17 = add nsw i32 %16, 1
  store i32 %17, ptr %2, align 4, !tbaa !4
  %18 = sext i32 %16 to i64
  %19 = getelementptr inbounds [6 x %struct.ossl_param_st], ptr %4, i64 0, i64 %18
  call void @llvm.lifetime.start.p0(i64 40, ptr %10) #6
  %20 = load ptr, ptr %6, align 8, !tbaa !18
  call void @OSSL_PARAM_construct_utf8_string(ptr dead_on_unwind writable sret(%struct.ossl_param_st) align 8 %10, ptr noundef @.str.73, ptr noundef %20, i64 noundef 0)
  call void @llvm.memcpy.p0.p0.i64(ptr align 8 %19, ptr align 8 %10, i64 40, i1 false), !tbaa.struct !17
  call void @llvm.lifetime.end.p0(i64 40, ptr %10) #6
  %21 = load i32, ptr %2, align 4, !tbaa !4
  %22 = add nsw i32 %21, 1
  store i32 %22, ptr %2, align 4, !tbaa !4
  %23 = sext i32 %21 to i64
  %24 = getelementptr inbounds [6 x %struct.ossl_param_st], ptr %4, i64 0, i64 %23
  call void @llvm.lifetime.start.p0(i64 40, ptr %11) #6
  %25 = load ptr, ptr %8, align 8, !tbaa !18
  call void @OSSL_PARAM_construct_utf8_string(ptr dead_on_unwind writable sret(%struct.ossl_param_st) align 8 %11, ptr noundef @.str.76, ptr noundef %25, i64 noundef 0)
  call void @llvm.memcpy.p0.p0.i64(ptr align 8 %24, ptr align 8 %11, i64 40, i1 false), !tbaa.struct !17
  call void @llvm.lifetime.end.p0(i64 40, ptr %11) #6
  %26 = load i32, ptr %2, align 4, !tbaa !4
  %27 = add nsw i32 %26, 1
  store i32 %27, ptr %2, align 4, !tbaa !4
  %28 = sext i32 %26 to i64
  %29 = getelementptr inbounds [6 x %struct.ossl_param_st], ptr %4, i64 0, i64 %28
  call void @llvm.lifetime.start.p0(i64 40, ptr %12) #6
  call void @OSSL_PARAM_construct_octet_string(ptr dead_on_unwind writable sret(%struct.ossl_param_st) align 8 %12, ptr noundef @.str.80, ptr noundef @test_kdf_kbkdf_8009_prf1.input_key, i64 noundef 16)
  call void @llvm.memcpy.p0.p0.i64(ptr align 8 %29, ptr align 8 %12, i64 40, i1 false), !tbaa.struct !17
  call void @llvm.lifetime.end.p0(i64 40, ptr %12) #6
  %30 = load i32, ptr %2, align 4, !tbaa !4
  %31 = add nsw i32 %30, 1
  store i32 %31, ptr %2, align 4, !tbaa !4
  %32 = sext i32 %30 to i64
  %33 = getelementptr inbounds [6 x %struct.ossl_param_st], ptr %4, i64 0, i64 %32
  call void @llvm.lifetime.start.p0(i64 40, ptr %13) #6
  %34 = load ptr, ptr %5, align 8, !tbaa !18
  %35 = load ptr, ptr %5, align 8, !tbaa !18
  %36 = call i64 @strlen(ptr noundef %35) #7
  call void @OSSL_PARAM_construct_octet_string(ptr dead_on_unwind writable sret(%struct.ossl_param_st) align 8 %13, ptr noundef @.str.71, ptr noundef %34, i64 noundef %36)
  call void @llvm.memcpy.p0.p0.i64(ptr align 8 %33, ptr align 8 %13, i64 40, i1 false), !tbaa.struct !17
  call void @llvm.lifetime.end.p0(i64 40, ptr %13) #6
  %37 = load i32, ptr %2, align 4, !tbaa !4
  %38 = add nsw i32 %37, 1
  store i32 %38, ptr %2, align 4, !tbaa !4
  %39 = sext i32 %37 to i64
  %40 = getelementptr inbounds [6 x %struct.ossl_param_st], ptr %4, i64 0, i64 %39
  call void @llvm.lifetime.start.p0(i64 40, ptr %14) #6
  %41 = load ptr, ptr %7, align 8, !tbaa !18
  %42 = load ptr, ptr %7, align 8, !tbaa !18
  %43 = call i64 @strlen(ptr noundef %42) #7
  call void @OSSL_PARAM_construct_octet_string(ptr dead_on_unwind writable sret(%struct.ossl_param_st) align 8 %14, ptr noundef @.str.93, ptr noundef %41, i64 noundef %43)
  call void @llvm.memcpy.p0.p0.i64(ptr align 8 %40, ptr align 8 %14, i64 40, i1 false), !tbaa.struct !17
  call void @llvm.lifetime.end.p0(i64 40, ptr %14) #6
  %44 = load i32, ptr %2, align 4, !tbaa !4
  %45 = sext i32 %44 to i64
  %46 = getelementptr inbounds [6 x %struct.ossl_param_st], ptr %4, i64 0, i64 %45
  call void @llvm.lifetime.start.p0(i64 40, ptr %15) #6
  call void @OSSL_PARAM_construct_end(ptr dead_on_unwind writable sret(%struct.ossl_param_st) align 8 %15)
  call void @llvm.memcpy.p0.p0.i64(ptr align 8 %46, ptr align 8 %15, i64 40, i1 false), !tbaa.struct !17
  call void @llvm.lifetime.end.p0(i64 40, ptr %15) #6
  %47 = call ptr @get_kdfbyname(ptr noundef @.str.82)
  store ptr %47, ptr %3, align 8, !tbaa !8
  %48 = load ptr, ptr %3, align 8, !tbaa !8
  %49 = call i32 @test_ptr(ptr noundef @.str.53, i32 noundef 1330, ptr noundef @.str.83, ptr noundef %48)
  %50 = icmp ne i32 %49, 0
  br i1 %50, label %51, label %62

51:                                               ; preds = %0
  %52 = load ptr, ptr %3, align 8, !tbaa !8
  %53 = getelementptr inbounds [32 x i8], ptr %9, i64 0, i64 0
  %54 = getelementptr inbounds [6 x %struct.ossl_param_st], ptr %4, i64 0, i64 0
  %55 = call i32 @EVP_KDF_derive(ptr noundef %52, ptr noundef %53, i64 noundef 32, ptr noundef %54)
  %56 = call i32 @test_int_gt(ptr noundef @.str.53, i32 noundef 1331, ptr noundef @.str.84, ptr noundef @.str.67, i32 noundef %55, i32 noundef 0)
  %57 = icmp ne i32 %56, 0
  br i1 %57, label %58, label %62

58:                                               ; preds = %51
  %59 = getelementptr inbounds [32 x i8], ptr %9, i64 0, i64 0
  %60 = call i32 @test_mem_eq(ptr noundef @.str.53, i32 noundef 1332, ptr noundef @.str.85, ptr noundef @.str.97, ptr noundef %59, i64 noundef 32, ptr noundef @test_kdf_kbkdf_8009_prf1.output, i64 noundef 32)
  %61 = icmp ne i32 %60, 0
  br label %62

62:                                               ; preds = %58, %51, %0
  %63 = phi i1 [ false, %51 ], [ false, %0 ], [ %61, %58 ]
  %64 = zext i1 %63 to i32
  store i32 %64, ptr %1, align 4, !tbaa !4
  %65 = load ptr, ptr %3, align 8, !tbaa !8
  call void @EVP_KDF_CTX_free(ptr noundef %65)
  %66 = load i32, ptr %1, align 4, !tbaa !4
  call void @llvm.lifetime.end.p0(i64 32, ptr %9) #6
  call void @llvm.lifetime.end.p0(i64 8, ptr %8) #6
  call void @llvm.lifetime.end.p0(i64 8, ptr %7) #6
  call void @llvm.lifetime.end.p0(i64 8, ptr %6) #6
  call void @llvm.lifetime.end.p0(i64 8, ptr %5) #6
  call void @llvm.lifetime.end.p0(i64 240, ptr %4) #6
  call void @llvm.lifetime.end.p0(i64 8, ptr %3) #6
  call void @llvm.lifetime.end.p0(i64 4, ptr %2) #6
  call void @llvm.lifetime.end.p0(i64 4, ptr %1) #6
  ret i32 %66
}